; Function Attrs: mustprogress nounwind uwtable
define dso_local noundef ptr @_ZNK4llvm19MachineRegisterInfo18getCalleeSavedRegsEv(ptr noundef nonnull readonly align 8 captures(none) dereferenceable(512) %0) local_unnamed_addr #0 align 2 {
  %2 = getelementptr inbounds nuw i8, ptr %0, i64 176
  %3 = load i8, ptr %2, align 8
  %4 = trunc i8 %3 to i1
  br i1 %4, label %5, label %8

5:                                                ; preds = %1
  %6 = getelementptr inbounds nuw i8, ptr %0, i64 184
  %7 = load ptr, ptr %6, align 8
  br label %21

8:                                                ; preds = %1
  %9 = load ptr, ptr %0, align 8
  %10 = getelementptr inbounds nuw i8, ptr %9, i64 16
  %11 = load ptr, ptr %10, align 8
  %12 = load ptr, ptr %11, align 8
  %13 = getelementptr inbounds nuw i8, ptr %12, i64 200
  %14 = load ptr, ptr %13, align 8
  %15 = tail call noundef ptr %14(ptr noundef nonnull align 8 dereferenceable(288) %11) #20
  %16 = load ptr, ptr %0, align 8
  %17 = load ptr, ptr %15, align 8
  %18 = getelementptr inbounds nuw i8, ptr %17, i64 40
  %19 = load ptr, ptr %18, align 8
  %20 = tail call noundef ptr %19(ptr noundef nonnull align 8 dereferenceable(308) %15, ptr noundef %16) #20
  br label %21

21:                                               ; preds = %8, %5
  %.0 = phi ptr [ %7, %5 ], [ %20, %8 ]
  ret ptr %.0
}